; Function Attrs: nounwind uwtable
define internal fastcc void @set_plain_rel_pathlist(ptr noundef %0, ptr noundef %1) unnamed_addr #0 {
  %3 = getelementptr inbounds nuw i8, ptr %1, i64 104
  %4 = load ptr, ptr %3, align 8
  %5 = tail call zeroext i1 @create_tidscan_paths(ptr noundef %0, ptr noundef %1) #9
  br i1 %5, label %37, label %6

6:                                                ; preds = %2
  %7 = tail call ptr @create_seqscan_path(ptr noundef %0, ptr noundef nonnull %1, ptr noundef %4, i32 noundef 0) #9
  tail call void @add_path(ptr noundef nonnull %1, ptr noundef %7) #9
  %8 = getelementptr inbounds nuw i8, ptr %1, i64 26
  %9 = load i8, ptr %8, align 2, !range !4, !noundef !5
  %10 = trunc nuw i8 %9 to i1
  %11 = icmp eq ptr %4, null
  %or.cond = select i1 %10, i1 %11, i1 false
  br i1 %or.cond, label %12, label %create_plain_partial_paths.exit

12:                                               ; preds = %6
  %13 = getelementptr inbounds nuw i8, ptr %1, i64 192
  %14 = load i32, ptr %13, align 8
  %15 = load i32, ptr @max_parallel_workers_per_gather, align 4
  %16 = getelementptr inbounds nuw i8, ptr %1, i64 240
  %17 = load i32, ptr %16, align 8
  %.not.i.i = icmp eq i32 %17, -1
  br i1 %.not.i.i, label %18, label %compute_parallel_worker.exit.i

18:                                               ; preds = %12
  %19 = zext i32 %14 to i64
  %20 = getelementptr inbounds nuw i8, ptr %1, i64 4
  %21 = load i32, ptr %20, align 4
  %22 = icmp eq i32 %21, 0
  %.pre.i = load i32, ptr @min_parallel_table_scan_size, align 4
  %23 = sext i32 %.pre.i to i64
  %24 = icmp slt i64 %19, %23
  %or.cond.i = select i1 %22, i1 %24, i1 false
  br i1 %or.cond.i, label %create_plain_partial_paths.exit, label %25

25:                                               ; preds = %18
  %26 = tail call i32 @llvm.smax.i32(i32 %.pre.i, i32 1)
  br label %27

27:                                               ; preds = %30, %25
  %.034.i.i = phi i32 [ %26, %25 ], [ %28, %30 ]
  %.032.i.i = phi i32 [ 1, %25 ], [ %31, %30 ]
  %28 = mul i32 %.034.i.i, 3
  %29 = icmp ult i32 %14, %28
  br i1 %29, label %compute_parallel_worker.exit.i, label %30

30:                                               ; preds = %27
  %31 = add i32 %.032.i.i, 1
  %32 = icmp sgt i32 %28, 715827882
  br i1 %32, label %compute_parallel_worker.exit.i, label %27, !llvm.loop !16

compute_parallel_worker.exit.i:                   ; preds = %30, %27, %12
  %.035.i.i = phi i32 [ %17, %12 ], [ %.032.i.i, %27 ], [ %31, %30 ]
  %33 = tail call i32 @llvm.smin.i32(i32 %.035.i.i, i32 %15)
  %34 = icmp slt i32 %33, 1
  br i1 %34, label %create_plain_partial_paths.exit, label %35

35:                                               ; preds = %compute_parallel_worker.exit.i
  %36 = tail call ptr @create_seqscan_path(ptr noundef %0, ptr noundef nonnull %1, ptr noundef null, i32 noundef %33) #9
  tail call void @add_partial_path(ptr noundef nonnull %1, ptr noundef %36) #9
  br label %create_plain_partial_paths.exit

create_plain_partial_paths.exit:                  ; preds = %35, %compute_parallel_worker.exit.i, %18, %6
  tail call void @create_index_paths(ptr noundef %0, ptr noundef nonnull %1) #9
  br label %37

37:                                               ; preds = %2, %create_plain_partial_paths.exit
  ret void
}